; Function Attrs: null_pointer_is_valid sspstrong uwtable
define internal i32 @dissect_p1_RoutingAction(i1 noundef zeroext %0, ptr noundef %1, i32 noundef %2, ptr noundef %3, ptr noundef %4, i32 noundef %5) #0 {
  %7 = alloca i32, align 4
  call void @llvm.lifetime.start.p0(i64 4, ptr nonnull %7) #5
  store i32 0, ptr %7, align 4
  %8 = call i32 @dissect_ber_integer(i1 noundef zeroext %0, ptr noundef %3, ptr noundef %4, ptr noundef %1, i32 noundef %2, i32 noundef %5, ptr noundef nonnull %7)
  %9 = getelementptr inbounds nuw i8, ptr %3, i64 120
  %10 = load ptr, ptr %9, align 8
  %11 = load i32, ptr %7, align 4
  %12 = call ptr @val_to_str(i32 noundef %11, ptr noundef nonnull @p1_RoutingAction_vals, ptr noundef nonnull @.str.1702)
  call void (ptr, ptr, ...) @proto_item_append_text(ptr noundef %10, ptr noundef nonnull @.str.3, ptr noundef %12)
  call void @llvm.lifetime.end.p0(i64 4, ptr nonnull %7) #5
  ret i32 %8
}